target datalayout = "e-m:e-p270:32:32-p271:32:32-p272:64:64-i64:64-i128:128-f80:128-n8:16:32:64-S128"
target triple = "x86_64-pc-linux-gnu"

%struct.P9Req = type { ptr, ptr, i16, i64, i32, i64, i64, i64, i32 }
%struct.P9Hdr = type <{ i32, i8, i16 }>

@.str = private unnamed_addr constant [46 x i8] c"../qemu/tests/qtest/libqos/virtio-9p-client.c\00", align 1
@.str.2 = private unnamed_addr constant [3 x i8] c"<=\00", align 1
@__func__.v9fs_req_recv = private unnamed_addr constant [14 x i8] c"v9fs_req_recv\00", align 1
@.str.6 = private unnamed_addr constant [14 x i8] c"hdr.size >= 7\00", align 1
@.str.7 = private unnamed_addr constant [3 x i8] c">=\00", align 1
@.str.8 = private unnamed_addr constant [24 x i8] c"hdr.size <= P9_MAX_SIZE\00", align 1
@.str.9 = private unnamed_addr constant [20 x i8] c"hdr.tag == req->tag\00", align 1
@.str.10 = private unnamed_addr constant [3 x i8] c"==\00", align 1
@.str.11 = private unnamed_addr constant [46 x i8] c"Received response %d (%s) instead of %d (%s)\0A\00", align 1
@.str.12 = private unnamed_addr constant [27 x i8] c"Rlerror has errno %d (%s)\0A\00", align 1
@.str.13 = private unnamed_addr constant [13 x i8] c"hdr.id == id\00", align 1

; Function Attrs: inlinehint nounwind sspstrong uwtable
define internal void @le32_to_cpus(ptr noundef %0) #3 {
  %2 = alloca ptr, align 8
  store ptr %0, ptr %2, align 8
  ret void
}

; Function Attrs: inlinehint nounwind sspstrong uwtable
define internal i32 @lduw_he_p(ptr noundef %0) #3 {
  %2 = alloca ptr, align 8
  %3 = alloca i16, align 2
  store ptr %0, ptr %2, align 8
  call void @llvm.lifetime.start.p0(i64 2, ptr %3) #13
  store i16 0, ptr %3, align 2, !annotation !4
  %4 = load ptr, ptr %2, align 8
  call void @llvm.memcpy.p0.p0.i64(ptr align 2 %3, ptr align 1 %4, i64 2, i1 false)
  %5 = load i16, ptr %3, align 2
  %6 = zext i16 %5 to i32
  call void @llvm.lifetime.end.p0(i64 2, ptr %3) #13
  ret i32 %6
}

; Function Attrs: inlinehint nounwind sspstrong uwtable
define internal i32 @ldl_he_p(ptr noundef %0) #3 {
  %2 = alloca ptr, align 8
  %3 = alloca i32, align 4
  store ptr %0, ptr %2, align 8
  call void @llvm.lifetime.start.p0(i64 4, ptr %3) #13
  store i32 0, ptr %3, align 4, !annotation !4
  %4 = load ptr, ptr %2, align 8
  call void @llvm.memcpy.p0.p0.i64(ptr align 4 %3, ptr align 1 %4, i64 4, i1 false)
  %5 = load i32, ptr %3, align 4
  call void @llvm.lifetime.end.p0(i64 4, ptr %3) #13
  ret i32 %5
}

; Function Attrs: nounwind sspstrong uwtable
define dso_local void @v9fs_uint32_read(ptr noundef %0, ptr noundef %1) #0 {
  %3 = alloca ptr, align 8
  %4 = alloca ptr, align 8
  store ptr %0, ptr %3, align 8
  store ptr %1, ptr %4, align 8
  %5 = load ptr, ptr %3, align 8
  %6 = load ptr, ptr %4, align 8
  call void @v9fs_memread(ptr noundef %5, ptr noundef %6, i64 noundef 4)
  %7 = load ptr, ptr %4, align 8
  call void @le32_to_cpus(ptr noundef %7)
  ret void
}

; Function Attrs: inlinehint nounwind sspstrong uwtable
define internal i32 @lduw_le_p(ptr noundef %0) #3 {
  %2 = alloca ptr, align 8
  store ptr %0, ptr %2, align 8
  %3 = load ptr, ptr %2, align 8
  %4 = call i32 @lduw_he_p(ptr noundef %3)
  %5 = trunc i32 %4 to i16
  %6 = zext i16 %5 to i32
  ret i32 %6
}

; Function Attrs: inlinehint nounwind sspstrong uwtable
define internal i32 @ldl_le_p(ptr noundef %0) #3 {
  %2 = alloca ptr, align 8
  store ptr %0, ptr %2, align 8
  %3 = load ptr, ptr %2, align 8
  %4 = call i32 @ldl_he_p(ptr noundef %3)
  ret i32 %4
}

; Function Attrs: nounwind sspstrong uwtable
define dso_local void @v9fs_memread(ptr noundef %0, ptr noundef %1, i64 noundef %2) #0 {
  %4 = alloca ptr, align 8
  %5 = alloca ptr, align 8
  %6 = alloca i64, align 8
  store ptr %0, ptr %4, align 8
  store ptr %1, ptr %5, align 8
  store i64 %2, ptr %6, align 8
  %7 = load ptr, ptr %4, align 8
  %8 = getelementptr inbounds nuw %struct.P9Req, ptr %7, i32 0, i32 0
  %9 = load ptr, ptr %8, align 8
  %10 = load ptr, ptr %4, align 8
  %11 = getelementptr inbounds nuw %struct.P9Req, ptr %10, i32 0, i32 5
  %12 = load i64, ptr %11, align 8
  %13 = load ptr, ptr %4, align 8
  %14 = getelementptr inbounds nuw %struct.P9Req, ptr %13, i32 0, i32 7
  %15 = load i64, ptr %14, align 8
  %16 = add i64 %12, %15
  %17 = load ptr, ptr %5, align 8
  %18 = load i64, ptr %6, align 8
  call void @qtest_memread(ptr noundef %9, i64 noundef %16, ptr noundef %17, i64 noundef %18)
  %19 = load i64, ptr %6, align 8
  %20 = load ptr, ptr %4, align 8
  %21 = getelementptr inbounds nuw %struct.P9Req, ptr %20, i32 0, i32 7
  %22 = load i64, ptr %21, align 8
  %23 = add i64 %22, %19
  store i64 %23, ptr %21, align 8
  ret void
}

; Function Attrs: nounwind sspstrong uwtable
define dso_local void @v9fs_req_recv(ptr noundef %0, i8 noundef zeroext %1) #0 {
  %3 = alloca ptr, align 8
  %4 = alloca i8, align 1
  %5 = alloca %struct.P9Hdr, align 1
  %6 = alloca i64, align 8
  %7 = alloca i64, align 8
  %8 = alloca i64, align 8
  %9 = alloca i64, align 8
  %10 = alloca i64, align 8
  %11 = alloca i64, align 8
  %12 = alloca i32, align 4
  %13 = alloca i64, align 8
  %14 = alloca i64, align 8
  store ptr %0, ptr %3, align 8
  store i8 %1, ptr %4, align 1
  call void @llvm.lifetime.start.p0(i64 7, ptr %5) #13
  call void @llvm.memset.p0.i64(ptr align 1 %5, i8 0, i64 7, i1 false), !annotation !4
  %15 = load ptr, ptr %3, align 8
  call void @v9fs_memread(ptr noundef %15, ptr noundef %5, i64 noundef 7)
  %16 = getelementptr inbounds nuw %struct.P9Hdr, ptr %5, i32 0, i32 0
  %17 = call i32 @ldl_le_p(ptr noundef %16)
  %18 = getelementptr inbounds nuw %struct.P9Hdr, ptr %5, i32 0, i32 0
  store i32 %17, ptr %18, align 1
  %19 = getelementptr inbounds nuw %struct.P9Hdr, ptr %5, i32 0, i32 2
  %20 = call i32 @lduw_le_p(ptr noundef %19)
  %21 = trunc i32 %20 to i16
  %22 = getelementptr inbounds nuw %struct.P9Hdr, ptr %5, i32 0, i32 2
  store i16 %21, ptr %22, align 1
  br label %23

23:                                               ; preds = %2
  call void @llvm.lifetime.start.p0(i64 8, ptr %6) #13
  %24 = getelementptr inbounds nuw %struct.P9Hdr, ptr %5, i32 0, i32 0
  %25 = load i32, ptr %24, align 1
  %26 = zext i32 %25 to i64
  store i64 %26, ptr %6, align 8
  call void @llvm.lifetime.start.p0(i64 8, ptr %7) #13
  store i64 7, ptr %7, align 8
  %27 = load i64, ptr %6, align 8
  %28 = load i64, ptr %7, align 8
  %29 = icmp sge i64 %27, %28
  br i1 %29, label %30, label %31

30:                                               ; preds = %23
  br label %36

31:                                               ; preds = %23
  %32 = load i64, ptr %6, align 8
  %33 = sitofp i64 %32 to x86_fp80
  %34 = load i64, ptr %7, align 8
  %35 = sitofp i64 %34 to x86_fp80
  call void @g_assertion_message_cmpnum(ptr noundef null, ptr noundef @.str, i32 noundef 262, ptr noundef @__func__.v9fs_req_recv, ptr noundef @.str.6, x86_fp80 noundef %33, ptr noundef @.str.7, x86_fp80 noundef %35, i8 noundef signext 105)
  br label %36

36:                                               ; preds = %31, %30
  call void @llvm.lifetime.end.p0(i64 8, ptr %7) #13
  call void @llvm.lifetime.end.p0(i64 8, ptr %6) #13
  br label %37

37:                                               ; preds = %36
  br label %38

38:                                               ; preds = %37
  br label %39

39:                                               ; preds = %38
  call void @llvm.lifetime.start.p0(i64 8, ptr %8) #13
  %40 = getelementptr inbounds nuw %struct.P9Hdr, ptr %5, i32 0, i32 0
  %41 = load i32, ptr %40, align 1
  %42 = zext i32 %41 to i64
  store i64 %42, ptr %8, align 8
  call void @llvm.lifetime.start.p0(i64 8, ptr %9) #13
  store i64 4096, ptr %9, align 8
  %43 = load i64, ptr %8, align 8
  %44 = load i64, ptr %9, align 8
  %45 = icmp sle i64 %43, %44
  br i1 %45, label %46, label %47

46:                                               ; preds = %39
  br label %52

47:                                               ; preds = %39
  %48 = load i64, ptr %8, align 8
  %49 = sitofp i64 %48 to x86_fp80
  %50 = load i64, ptr %9, align 8
  %51 = sitofp i64 %50 to x86_fp80
  call void @g_assertion_message_cmpnum(ptr noundef null, ptr noundef @.str, i32 noundef 263, ptr noundef @__func__.v9fs_req_recv, ptr noundef @.str.8, x86_fp80 noundef %49, ptr noundef @.str.2, x86_fp80 noundef %51, i8 noundef signext 105)
  br label %52

52:                                               ; preds = %47, %46
  call void @llvm.lifetime.end.p0(i64 8, ptr %9) #13
  call void @llvm.lifetime.end.p0(i64 8, ptr %8) #13
  br label %53

53:                                               ; preds = %52
  br label %54

54:                                               ; preds = %53
  br label %55

55:                                               ; preds = %54
  call void @llvm.lifetime.start.p0(i64 8, ptr %10) #13
  %56 = getelementptr inbounds nuw %struct.P9Hdr, ptr %5, i32 0, i32 2
  %57 = load i16, ptr %56, align 1
  %58 = zext i16 %57 to i64
  store i64 %58, ptr %10, align 8
  call void @llvm.lifetime.start.p0(i64 8, ptr %11) #13
  %59 = load ptr, ptr %3, align 8
  %60 = getelementptr inbounds nuw %struct.P9Req, ptr %59, i32 0, i32 2
  %61 = load i16, ptr %60, align 8
  %62 = zext i16 %61 to i64
  store i64 %62, ptr %11, align 8
  %63 = load i64, ptr %10, align 8
  %64 = load i64, ptr %11, align 8
  %65 = icmp eq i64 %63, %64
  br i1 %65, label %66, label %67

66:                                               ; preds = %55
  br label %72

67:                                               ; preds = %55
  %68 = load i64, ptr %10, align 8
  %69 = sitofp i64 %68 to x86_fp80
  %70 = load i64, ptr %11, align 8
  %71 = sitofp i64 %70 to x86_fp80
  call void @g_assertion_message_cmpnum(ptr noundef null, ptr noundef @.str, i32 noundef 264, ptr noundef @__func__.v9fs_req_recv, ptr noundef @.str.9, x86_fp80 noundef %69, ptr noundef @.str.10, x86_fp80 noundef %71, i8 noundef signext 105)
  br label %72

72:                                               ; preds = %67, %66
  call void @llvm.lifetime.end.p0(i64 8, ptr %11) #13
  call void @llvm.lifetime.end.p0(i64 8, ptr %10) #13
  br label %73

73:                                               ; preds = %72
  br label %74

74:                                               ; preds = %73
  %75 = getelementptr inbounds nuw %struct.P9Hdr, ptr %5, i32 0, i32 1
  %76 = load i8, ptr %75, align 1
  %77 = zext i8 %76 to i32
  %78 = load i8, ptr %4, align 1
  %79 = zext i8 %78 to i32
  %80 = icmp ne i32 %77, %79
  br i1 %80, label %81, label %102

81:                                               ; preds = %74
  %82 = getelementptr inbounds nuw %struct.P9Hdr, ptr %5, i32 0, i32 1
  %83 = load i8, ptr %82, align 1
  %84 = zext i8 %83 to i32
  %85 = getelementptr inbounds nuw %struct.P9Hdr, ptr %5, i32 0, i32 1
  %86 = load i8, ptr %85, align 1
  %87 = call ptr @rmessage_name(i8 noundef zeroext %86)
  %88 = load i8, ptr %4, align 1
  %89 = zext i8 %88 to i32
  %90 = load i8, ptr %4, align 1
  %91 = call ptr @rmessage_name(i8 noundef zeroext %90)
  call void (ptr, ...) @g_printerr(ptr noundef @.str.11, i32 noundef %84, ptr noundef %87, i32 noundef %89, ptr noundef %91)
  %92 = getelementptr inbounds nuw %struct.P9Hdr, ptr %5, i32 0, i32 1
  %93 = load i8, ptr %92, align 1
  %94 = zext i8 %93 to i32
  %95 = icmp eq i32 %94, 7
  br i1 %95, label %96, label %101

96:                                               ; preds = %81
  call void @llvm.lifetime.start.p0(i64 4, ptr %12) #13
  store i32 0, ptr %12, align 4, !annotation !4
  %97 = load ptr, ptr %3, align 8
  call void @v9fs_uint32_read(ptr noundef %97, ptr noundef %12)
  %98 = load i32, ptr %12, align 4
  %99 = load i32, ptr %12, align 4
  %100 = call ptr @strerror(i32 noundef %99) #13
  call void (ptr, ...) @g_printerr(ptr noundef @.str.12, i32 noundef %98, ptr noundef %100)
  call void @llvm.lifetime.end.p0(i64 4, ptr %12) #13
  br label %101

101:                                              ; preds = %96, %81
  br label %102

102:                                              ; preds = %101, %74
  br label %103

103:                                              ; preds = %102
  call void @llvm.lifetime.start.p0(i64 8, ptr %13) #13
  %104 = getelementptr inbounds nuw %struct.P9Hdr, ptr %5, i32 0, i32 1
  %105 = load i8, ptr %104, align 1
  %106 = zext i8 %105 to i64
  store i64 %106, ptr %13, align 8
  call void @llvm.lifetime.start.p0(i64 8, ptr %14) #13
  %107 = load i8, ptr %4, align 1
  %108 = zext i8 %107 to i64
  store i64 %108, ptr %14, align 8
  %109 = load i64, ptr %13, align 8
  %110 = load i64, ptr %14, align 8
  %111 = icmp eq i64 %109, %110
  br i1 %111, label %112, label %113

112:                                              ; preds = %103
  br label %118

113:                                              ; preds = %103
  %114 = load i64, ptr %13, align 8
  %115 = sitofp i64 %114 to x86_fp80
  %116 = load i64, ptr %14, align 8
  %117 = sitofp i64 %116 to x86_fp80
  call void @g_assertion_message_cmpnum(ptr noundef null, ptr noundef @.str, i32 noundef 276, ptr noundef @__func__.v9fs_req_recv, ptr noundef @.str.13, x86_fp80 noundef %115, ptr noundef @.str.10, x86_fp80 noundef %117, i8 noundef signext 105)
  br label %118

118:                                              ; preds = %113, %112
  call void @llvm.lifetime.end.p0(i64 8, ptr %14) #13
  call void @llvm.lifetime.end.p0(i64 8, ptr %13) #13
  br label %119

119:                                              ; preds = %118
  br label %120

120:                                              ; preds = %119
  call void @llvm.lifetime.end.p0(i64 7, ptr %5) #13
  ret void
}