; Function Attrs: nounwind sspstrong uwtable
define dso_local void @v9fs_req_recv(ptr noundef captures(none) %0, i8 noundef zeroext %1) local_unnamed_addr #1 {
  %3 = alloca %struct.P9Hdr, align 4
  %4 = alloca i32, align 4
  call void @llvm.lifetime.start.p0(i64 7, ptr nonnull %3) #14
  call void @llvm.memset.p0.i64(ptr noundef nonnull align 4 dereferenceable(7) %3, i8 0, i64 7, i1 false), !annotation !4
  %5 = load ptr, ptr %0, align 8
  %6 = getelementptr inbounds nuw i8, ptr %0, i64 40
  %7 = load i64, ptr %6, align 8
  %8 = getelementptr inbounds nuw i8, ptr %0, i64 56
  %9 = load i64, ptr %8, align 8
  %10 = add i64 %9, %7
  call void @qtest_memread(ptr noundef %5, i64 noundef %10, ptr noundef nonnull %3, i64 noundef 7) #14
  %11 = load i64, ptr %8, align 8
  %12 = add i64 %11, 7
  store i64 %12, ptr %8, align 8
  %.val = load i32, ptr %3, align 4
  %13 = getelementptr inbounds nuw i8, ptr %3, i64 5
  %14 = icmp ugt i32 %.val, 6
  br i1 %14, label %17, label %15

15:                                               ; preds = %2
  %16 = uitofp nneg i32 %.val to x86_fp80
  call void @g_assertion_message_cmpnum(ptr noundef null, ptr noundef nonnull @.str, i32 noundef 262, ptr noundef nonnull @__func__.v9fs_req_recv, ptr noundef nonnull @.str.6, x86_fp80 noundef %16, ptr noundef nonnull @.str.7, x86_fp80 noundef 0xK4001E000000000000000, i8 noundef signext 105) #14
  %.pr = load i32, ptr %3, align 4
  br label %17

17:                                               ; preds = %2, %15
  %18 = phi i32 [ %.val, %2 ], [ %.pr, %15 ]
  %19 = icmp ult i32 %18, 4097
  br i1 %19, label %22, label %20

20:                                               ; preds = %17
  %21 = uitofp i32 %18 to x86_fp80
  call void @g_assertion_message_cmpnum(ptr noundef null, ptr noundef nonnull @.str, i32 noundef 263, ptr noundef nonnull @__func__.v9fs_req_recv, ptr noundef nonnull @.str.8, x86_fp80 noundef %21, ptr noundef nonnull @.str.2, x86_fp80 noundef 0xK400B8000000000000000, i8 noundef signext 105) #14
  br label %22

22:                                               ; preds = %17, %20
  %23 = load i16, ptr %13, align 1
  %24 = getelementptr inbounds nuw i8, ptr %0, i64 16
  %25 = load i16, ptr %24, align 8
  %26 = icmp eq i16 %23, %25
  br i1 %26, label %30, label %27

27:                                               ; preds = %22
  %28 = uitofp i16 %23 to x86_fp80
  %29 = uitofp i16 %25 to x86_fp80
  call void @g_assertion_message_cmpnum(ptr noundef null, ptr noundef nonnull @.str, i32 noundef 264, ptr noundef nonnull @__func__.v9fs_req_recv, ptr noundef nonnull @.str.9, x86_fp80 noundef %28, ptr noundef nonnull @.str.10, x86_fp80 noundef %29, i8 noundef signext 105) #14
  br label %30

30:                                               ; preds = %22, %27
  %31 = getelementptr inbounds nuw i8, ptr %3, i64 4
  %32 = load i8, ptr %31, align 4
  %.not = icmp eq i8 %32, %1
  br i1 %.not, label %.thread, label %33

33:                                               ; preds = %30
  %34 = zext i8 %1 to i32
  %35 = zext i8 %32 to i32
  %36 = call fastcc ptr @rmessage_name(i8 noundef zeroext %32)
  %37 = call fastcc ptr @rmessage_name(i8 noundef zeroext %1)
  call void (ptr, ...) @g_printerr(ptr noundef nonnull @.str.11, i32 noundef %35, ptr noundef nonnull %36, i32 noundef %34, ptr noundef nonnull %37) #14
  %38 = load i8, ptr %31, align 4
  %39 = icmp eq i8 %38, 7
  br i1 %39, label %40, label %49

40:                                               ; preds = %33
  call void @llvm.lifetime.start.p0(i64 4, ptr nonnull %4) #14
  store i32 0, ptr %4, align 4, !annotation !4
  %41 = load ptr, ptr %0, align 8
  %42 = load i64, ptr %6, align 8
  %43 = load i64, ptr %8, align 8
  %44 = add i64 %43, %42
  call void @qtest_memread(ptr noundef %41, i64 noundef %44, ptr noundef nonnull %4, i64 noundef 4) #14
  %45 = load i64, ptr %8, align 8
  %46 = add i64 %45, 4
  store i64 %46, ptr %8, align 8
  %47 = load i32, ptr %4, align 4
  %48 = call ptr @strerror(i32 noundef %47) #14
  call void (ptr, ...) @g_printerr(ptr noundef nonnull @.str.12, i32 noundef %47, ptr noundef %48) #14
  call void @llvm.lifetime.end.p0(i64 4, ptr nonnull %4) #14
  %.pre = load i8, ptr %31, align 4
  br label %49

49:                                               ; preds = %40, %33
  %50 = phi i8 [ %.pre, %40 ], [ %38, %33 ]
  %51 = icmp eq i8 %50, %1
  br i1 %51, label %.thread, label %52

52:                                               ; preds = %49
  %53 = uitofp i8 %50 to x86_fp80
  %54 = uitofp i8 %1 to x86_fp80
  call void @g_assertion_message_cmpnum(ptr noundef null, ptr noundef nonnull @.str, i32 noundef 276, ptr noundef nonnull @__func__.v9fs_req_recv, ptr noundef nonnull @.str.13, x86_fp80 noundef %53, ptr noundef nonnull @.str.10, x86_fp80 noundef %54, i8 noundef signext 105) #14
  br label %.thread

.thread:                                          ; preds = %30, %49, %52
  call void @llvm.lifetime.end.p0(i64 7, ptr nonnull %3) #14
  ret void
}